; Function Attrs: mustprogress uwtable
define void @_ZNK32pxrInternal_v0_24__pxrReserved__27UsdLuxNonboundableLightBase18CreateExposureAttrERKNS_7VtValueEb(ptr dead_on_unwind noalias writable sret(%"class.pxrInternal_v0_24__pxrReserved__::UsdAttribute") align 8 %0, ptr noundef nonnull align 8 dereferenceable(24) %1, ptr noundef nonnull align 8 dereferenceable(16) %2, i1 noundef zeroext %3) local_unnamed_addr #0 align 2 personality ptr @__gxx_personality_v0 {
  %5 = alloca %"class.pxrInternal_v0_24__pxrReserved__::UsdLuxLightAPI", align 8
  call void @_ZNK32pxrInternal_v0_24__pxrReserved__27UsdLuxNonboundableLightBase8LightAPIEv(ptr dead_on_unwind nonnull writable sret(%"class.pxrInternal_v0_24__pxrReserved__::UsdLuxLightAPI") align 8 %5, ptr noundef nonnull align 8 dereferenceable(24) %1)
  invoke void @_ZNK32pxrInternal_v0_24__pxrReserved__14UsdLuxLightAPI18CreateExposureAttrERKNS_7VtValueEb(ptr dead_on_unwind writable sret(%"class.pxrInternal_v0_24__pxrReserved__::UsdAttribute") align 8 %0, ptr noundef nonnull align 8 dereferenceable(32) %5, ptr noundef nonnull align 8 dereferenceable(16) %2, i1 noundef zeroext %3)
          to label %6 unwind label %7

6:                                                ; preds = %4
  call void @_ZN32pxrInternal_v0_24__pxrReserved__14UsdLuxLightAPID1Ev(ptr noundef nonnull align 8 dereferenceable(32) %5) #14
  ret void

7:                                                ; preds = %4
  %8 = landingpad { ptr, i32 }
          cleanup
  call void @_ZN32pxrInternal_v0_24__pxrReserved__14UsdLuxLightAPID1Ev(ptr noundef nonnull align 8 dereferenceable(32) %5) #14
  resume { ptr, i32 } %8
}